target datalayout = "e-m:e-p270:32:32-p271:32:32-p272:64:64-i64:64-i128:128-f80:128-n8:16:32:64-S128"
target triple = "x86_64-pc-linux-gnu"

%"class.icu_77::MaybeStackArray" = type <{ ptr, i32, i8, [40 x i8], [3 x i8] }>
%struct.CollatorSpec = type { [6 x %"class.icu_77::CharString"], %"class.icu_77::CharString", [8 x i32], i32, [32 x i16], i32, i8, [7 x i8], [17 x %"class.icu_77::CharString"] }
%"class.icu_77::CharString" = type { %"class.icu_77::MaybeStackArray", i32, [4 x i8] }

@_ZN6icu_7715MaybeStackArrayIcLi40EEC1Ev = weak_odr unnamed_addr alias void (ptr), ptr @_ZN6icu_7715MaybeStackArrayIcLi40EEC2Ev
@_ZN6icu_7715MaybeStackArrayIcLi40EED1Ev = weak_odr unnamed_addr alias void (ptr), ptr @_ZN6icu_7715MaybeStackArrayIcLi40EED2Ev

; Function Attrs: mustprogress nounwind uwtable
define weak_odr noundef nonnull align 1 dereferenceable(1) ptr @_ZN6icu_7715MaybeStackArrayIcLi40EEixEl(ptr noundef nonnull align 8 dereferenceable(53) %0, i64 noundef %1) #0 comdat align 2 {
  %3 = alloca ptr, align 8
  %4 = alloca i64, align 8
  store ptr %0, ptr %3, align 8, !tbaa !3
  store i64 %1, ptr %4, align 8, !tbaa !18
  %5 = load ptr, ptr %3, align 8
  %6 = getelementptr inbounds nuw %"class.icu_77::MaybeStackArray", ptr %5, i32 0, i32 0
  %7 = load ptr, ptr %6, align 8, !tbaa !8
  %8 = load i64, ptr %4, align 8, !tbaa !18
  %9 = getelementptr inbounds i8, ptr %7, i64 %8
  ret ptr %9
}

; Function Attrs: mustprogress nounwind uwtable
define linkonce_odr void @_ZN6icu_7710CharStringD2Ev(ptr noundef nonnull align 8 dereferenceable(60) %0) unnamed_addr #0 comdat align 2 {
  %2 = alloca ptr, align 8
  store ptr %0, ptr %2, align 8, !tbaa !47
  %3 = load ptr, ptr %2, align 8
  %4 = getelementptr inbounds nuw %"class.icu_77::CharString", ptr %3, i32 0, i32 0
  call void @_ZN6icu_7715MaybeStackArrayIcLi40EED1Ev(ptr noundef nonnull align 8 dereferenceable(53) %4) #12
  ret void
}

; Function Attrs: mustprogress uwtable
define linkonce_odr void @_ZN6icu_7710CharStringC2EPKciR10UErrorCode(ptr noundef nonnull align 8 dereferenceable(60) %0, ptr noundef %1, i32 noundef %2, ptr noundef nonnull align 4 dereferenceable(4) %3) unnamed_addr #1 comdat align 2 personality ptr @__gxx_personality_v0 {
  %5 = alloca ptr, align 8
  %6 = alloca ptr, align 8
  %7 = alloca i32, align 4
  %8 = alloca ptr, align 8
  %9 = alloca ptr, align 8
  %10 = alloca i32, align 4
  store ptr %0, ptr %5, align 8, !tbaa !47
  store ptr %1, ptr %6, align 8, !tbaa !17
  store i32 %2, ptr %7, align 4, !tbaa !14
  store ptr %3, ptr %8, align 8, !tbaa !22
  %11 = load ptr, ptr %5, align 8
  %12 = getelementptr inbounds nuw %"class.icu_77::CharString", ptr %11, i32 0, i32 0
  call void @_ZN6icu_7715MaybeStackArrayIcLi40EEC1Ev(ptr noundef nonnull align 8 dereferenceable(53) %12)
  %13 = getelementptr inbounds nuw %"class.icu_77::CharString", ptr %11, i32 0, i32 1
  store i32 0, ptr %13, align 8, !tbaa !49
  %14 = getelementptr inbounds nuw %"class.icu_77::CharString", ptr %11, i32 0, i32 0
  %15 = call noundef nonnull align 1 dereferenceable(1) ptr @_ZN6icu_7715MaybeStackArrayIcLi40EEixEl(ptr noundef nonnull align 8 dereferenceable(53) %14, i64 noundef 0)
  store i8 0, ptr %15, align 1, !tbaa !23
  %16 = load ptr, ptr %6, align 8, !tbaa !17
  %17 = load i32, ptr %7, align 4, !tbaa !14
  %18 = load ptr, ptr %8, align 8, !tbaa !22
  %19 = invoke noundef nonnull align 8 dereferenceable(60) ptr @_ZN6icu_7710CharString6appendEPKciR10UErrorCode(ptr noundef nonnull align 8 dereferenceable(60) %11, ptr noundef %16, i32 noundef %17, ptr noundef nonnull align 4 dereferenceable(4) %18)
          to label %20 unwind label %21

20:                                               ; preds = %4
  ret void

21:                                               ; preds = %4
  %22 = landingpad { ptr, i32 }
          cleanup
  %23 = extractvalue { ptr, i32 } %22, 0
  store ptr %23, ptr %9, align 8
  %24 = extractvalue { ptr, i32 } %22, 1
  store i32 %24, ptr %10, align 4
  call void @_ZN6icu_7715MaybeStackArrayIcLi40EED1Ev(ptr noundef nonnull align 8 dereferenceable(53) %12) #12
  br label %25

25:                                               ; preds = %21
  %26 = load ptr, ptr %9, align 8
  %27 = load i32, ptr %10, align 4
  %28 = insertvalue { ptr, i32 } poison, ptr %26, 0
  %29 = insertvalue { ptr, i32 } %28, i32 %27, 1
  resume { ptr, i32 } %29
}

; Function Attrs: mustprogress uwtable
define internal noundef ptr @_ZL21_processRFC3066LocaleP12CollatorSpecjPKcP10UErrorCode(ptr noundef %0, i32 noundef %1, ptr noundef %2, ptr noundef %3) #1 personality ptr @__gxx_personality_v0 {
  %5 = alloca ptr, align 8
  %6 = alloca ptr, align 8
  %7 = alloca i32, align 4
  %8 = alloca ptr, align 8
  %9 = alloca ptr, align 8
  %10 = alloca i8, align 1
  %11 = alloca ptr, align 8
  %12 = alloca i32, align 4
  %13 = alloca %"class.icu_77::CharString", align 8
  %14 = alloca ptr, align 8
  %15 = alloca i32, align 4
  store ptr %0, ptr %6, align 8, !tbaa !35
  store i32 %1, ptr %7, align 4, !tbaa !14
  store ptr %2, ptr %8, align 8, !tbaa !17
  store ptr %3, ptr %9, align 8, !tbaa !22
  call void @llvm.lifetime.start.p0(i64 1, ptr %10) #12
  %16 = load ptr, ptr %8, align 8, !tbaa !17
  %17 = load i8, ptr %16, align 1, !tbaa !23
  store i8 %17, ptr %10, align 1, !tbaa !23
  %18 = load ptr, ptr %8, align 8, !tbaa !17
  %19 = getelementptr inbounds nuw i8, ptr %18, i32 1
  store ptr %19, ptr %8, align 8, !tbaa !17
  call void @llvm.lifetime.start.p0(i64 8, ptr %11) #12
  %20 = load ptr, ptr %8, align 8, !tbaa !17
  %21 = getelementptr inbounds i8, ptr %20, i64 1
  %22 = load i8, ptr %10, align 1, !tbaa !23
  %23 = sext i8 %22 to i32
  %24 = call noundef ptr @strchr(ptr noundef %21, i32 noundef %23) #15
  store ptr %24, ptr %11, align 8, !tbaa !17
  %25 = load ptr, ptr %11, align 8, !tbaa !17
  %26 = icmp eq ptr %25, null
  br i1 %26, label %34, label %27

27:                                               ; preds = %4
  %28 = load ptr, ptr %11, align 8, !tbaa !17
  %29 = load ptr, ptr %8, align 8, !tbaa !17
  %30 = ptrtoint ptr %28 to i64
  %31 = ptrtoint ptr %29 to i64
  %32 = sub i64 %30, %31
  %33 = icmp sge i64 %32, 256
  br i1 %33, label %34, label %37

34:                                               ; preds = %27, %4
  %35 = load ptr, ptr %9, align 8, !tbaa !22
  store i32 15, ptr %35, align 4, !tbaa !15
  %36 = load ptr, ptr %8, align 8, !tbaa !17
  store ptr %36, ptr %5, align 8
  store i32 1, ptr %12, align 4
  br label %57

37:                                               ; preds = %27
  %38 = load ptr, ptr %6, align 8, !tbaa !35
  %39 = getelementptr inbounds nuw %struct.CollatorSpec, ptr %38, i32 0, i32 1
  call void @llvm.lifetime.start.p0(i64 64, ptr %13) #12
  %40 = load ptr, ptr %8, align 8, !tbaa !17
  %41 = load ptr, ptr %11, align 8, !tbaa !17
  %42 = load ptr, ptr %8, align 8, !tbaa !17
  %43 = ptrtoint ptr %41 to i64
  %44 = ptrtoint ptr %42 to i64
  %45 = sub i64 %43, %44
  %46 = trunc i64 %45 to i32
  %47 = load ptr, ptr %9, align 8, !tbaa !22
  call void @_ZN6icu_7710CharStringC2EPKciR10UErrorCode(ptr noundef nonnull align 8 dereferenceable(60) %13, ptr noundef %40, i32 noundef %46, ptr noundef nonnull align 4 dereferenceable(4) %47)
  %48 = load ptr, ptr %9, align 8, !tbaa !22
  %49 = invoke noundef nonnull align 8 dereferenceable(60) ptr @_ZN6icu_7710CharString8copyFromERKS0_R10UErrorCode(ptr noundef nonnull align 8 dereferenceable(60) %39, ptr noundef nonnull align 8 dereferenceable(60) %13, ptr noundef nonnull align 4 dereferenceable(4) %48)
          to label %50 unwind label %53

50:                                               ; preds = %37
  call void @_ZN6icu_7710CharStringD2Ev(ptr noundef nonnull align 8 dereferenceable(60) %13) #12
  call void @llvm.lifetime.end.p0(i64 64, ptr %13) #12
  %51 = load ptr, ptr %11, align 8, !tbaa !17
  %52 = getelementptr inbounds i8, ptr %51, i64 1
  store ptr %52, ptr %5, align 8
  store i32 1, ptr %12, align 4
  br label %57

53:                                               ; preds = %37
  %54 = landingpad { ptr, i32 }
          cleanup
  %55 = extractvalue { ptr, i32 } %54, 0
  store ptr %55, ptr %14, align 8
  %56 = extractvalue { ptr, i32 } %54, 1
  store i32 %56, ptr %15, align 4
  call void @_ZN6icu_7710CharStringD2Ev(ptr noundef nonnull align 8 dereferenceable(60) %13) #12
  call void @llvm.lifetime.end.p0(i64 64, ptr %13) #12
  call void @llvm.lifetime.end.p0(i64 8, ptr %11) #12
  call void @llvm.lifetime.end.p0(i64 1, ptr %10) #12
  br label %59

57:                                               ; preds = %50, %34
  call void @llvm.lifetime.end.p0(i64 8, ptr %11) #12
  call void @llvm.lifetime.end.p0(i64 1, ptr %10) #12
  %58 = load ptr, ptr %5, align 8
  ret ptr %58

59:                                               ; preds = %53
  %60 = load ptr, ptr %14, align 8
  %61 = load i32, ptr %15, align 4
  %62 = insertvalue { ptr, i32 } poison, ptr %60, 0
  %63 = insertvalue { ptr, i32 } %62, i32 %61, 1
  resume { ptr, i32 } %63
}