; Function Attrs: mustprogress uwtable
define internal noundef ptr @_ZL21_processRFC3066LocaleP12CollatorSpecjPKcP10UErrorCode(ptr noundef %0, i32 %1, ptr noundef %2, ptr noundef %3) #1 personality ptr @__gxx_personality_v0 {
  %5 = alloca %"class.icu_77::CharString", align 8
  %6 = load i8, ptr %2, align 1, !tbaa !22
  %7 = getelementptr inbounds nuw i8, ptr %2, i64 1
  %8 = getelementptr inbounds nuw i8, ptr %2, i64 2
  %9 = sext i8 %6 to i32
  %10 = tail call noundef ptr @strchr(ptr noundef nonnull dereferenceable(1) %8, i32 noundef %9) #17
  %11 = icmp eq ptr %10, null
  br i1 %11, label %17, label %12

12:                                               ; preds = %4
  %13 = ptrtoint ptr %10 to i64
  %14 = ptrtoint ptr %7 to i64
  %15 = sub i64 %13, %14
  %16 = icmp sgt i64 %15, 255
  br i1 %16, label %17, label %18

17:                                               ; preds = %12, %4
  store i32 15, ptr %3, align 4, !tbaa !13
  br label %31

18:                                               ; preds = %12
  call void @llvm.lifetime.start.p0(i64 64, ptr nonnull %5) #14
  %19 = trunc i64 %15 to i32
  call void @_ZN6icu_7715MaybeStackArrayIcLi40EEC1Ev(ptr noundef nonnull align 8 dereferenceable(60) %5)
  %20 = getelementptr inbounds nuw i8, ptr %5, i64 56
  store i32 0, ptr %20, align 8, !tbaa !20
  %21 = load ptr, ptr %5, align 8, !tbaa !3
  store i8 0, ptr %21, align 1, !tbaa !22
  %22 = invoke noundef nonnull align 8 dereferenceable(60) ptr @_ZN6icu_7710CharString6appendEPKciR10UErrorCode(ptr noundef nonnull align 8 dereferenceable(60) %5, ptr noundef nonnull %7, i32 noundef %19, ptr noundef nonnull align 4 dereferenceable(4) %3)
          to label %_ZN6icu_7710CharStringC2EPKciR10UErrorCode.exit unwind label %23

common.resume:                                    ; preds = %29, %23
  %common.resume.op = phi { ptr, i32 } [ %24, %23 ], [ %30, %29 ]
  resume { ptr, i32 } %common.resume.op

23:                                               ; preds = %18
  %24 = landingpad { ptr, i32 }
          cleanup
  call void @_ZN6icu_7715MaybeStackArrayIcLi40EED1Ev(ptr noundef nonnull align 8 dereferenceable(60) %5) #14
  br label %common.resume

_ZN6icu_7710CharStringC2EPKciR10UErrorCode.exit:  ; preds = %18
  %25 = getelementptr inbounds nuw i8, ptr %0, i64 384
  %26 = invoke noundef nonnull align 8 dereferenceable(60) ptr @_ZN6icu_7710CharString8copyFromERKS0_R10UErrorCode(ptr noundef nonnull align 8 dereferenceable(60) %25, ptr noundef nonnull align 8 dereferenceable(60) %5, ptr noundef nonnull align 4 dereferenceable(4) %3)
          to label %27 unwind label %29

27:                                               ; preds = %_ZN6icu_7710CharStringC2EPKciR10UErrorCode.exit
  call void @_ZN6icu_7715MaybeStackArrayIcLi40EED1Ev(ptr noundef nonnull align 8 dereferenceable(60) %5) #14
  call void @llvm.lifetime.end.p0(i64 64, ptr nonnull %5) #14
  %28 = getelementptr inbounds nuw i8, ptr %10, i64 1
  br label %31

29:                                               ; preds = %_ZN6icu_7710CharStringC2EPKciR10UErrorCode.exit
  %30 = landingpad { ptr, i32 }
          cleanup
  call void @_ZN6icu_7715MaybeStackArrayIcLi40EED1Ev(ptr noundef nonnull align 8 dereferenceable(60) %5) #14
  call void @llvm.lifetime.end.p0(i64 64, ptr nonnull %5) #14
  br label %common.resume

31:                                               ; preds = %27, %17
  %.0 = phi ptr [ %7, %17 ], [ %28, %27 ]
  ret ptr %.0
}